; Function Attrs: mustprogress nounwind uwtable
define void @_ZN7rocksdb9CleanableD2Ev(ptr noundef nonnull readonly align 8 captures(none) dereferenceable(32) %0) unnamed_addr #6 align 2 personality ptr @__gxx_personality_v0 {
  %2 = load ptr, ptr %0, align 8, !tbaa !4
  %.not.i = icmp eq ptr %2, null
  br i1 %.not.i, label %_ZN7rocksdb9Cleanable9DoCleanupEv.exit, label %3

3:                                                ; preds = %1
  %4 = getelementptr inbounds nuw i8, ptr %0, i64 8
  %5 = load ptr, ptr %4, align 8, !tbaa !21
  %6 = getelementptr inbounds nuw i8, ptr %0, i64 16
  %7 = load ptr, ptr %6, align 8, !tbaa !22
  invoke void %2(ptr noundef %5, ptr noundef %7)
          to label %.noexc unwind label %.loopexit.split-lp

.noexc:                                           ; preds = %3
  %8 = getelementptr inbounds nuw i8, ptr %0, i64 24
  %9 = load ptr, ptr %8, align 8, !tbaa !11
  %.not910.i = icmp eq ptr %9, null
  br i1 %.not910.i, label %_ZN7rocksdb9Cleanable9DoCleanupEv.exit, label %.lr.ph.i

.lr.ph.i:                                         ; preds = %.noexc, %.noexc1
  %.011.i = phi ptr [ %16, %.noexc1 ], [ %9, %.noexc ]
  %10 = load ptr, ptr %.011.i, align 8, !tbaa !18
  %11 = getelementptr inbounds nuw i8, ptr %.011.i, i64 8
  %12 = load ptr, ptr %11, align 8, !tbaa !15
  %13 = getelementptr inbounds nuw i8, ptr %.011.i, i64 16
  %14 = load ptr, ptr %13, align 8, !tbaa !16
  invoke void %10(ptr noundef %12, ptr noundef %14)
          to label %.noexc1 unwind label %.loopexit

.noexc1:                                          ; preds = %.lr.ph.i
  %15 = getelementptr inbounds nuw i8, ptr %.011.i, i64 24
  %16 = load ptr, ptr %15, align 8, !tbaa !17
  tail call void @_ZdlPvm(ptr noundef nonnull %.011.i, i64 noundef 32) #14
  %.not9.i = icmp eq ptr %16, null
  br i1 %.not9.i, label %_ZN7rocksdb9Cleanable9DoCleanupEv.exit, label %.lr.ph.i, !llvm.loop !28

_ZN7rocksdb9Cleanable9DoCleanupEv.exit:           ; preds = %.noexc1, %.noexc, %1
  ret void

.loopexit:                                        ; preds = %.lr.ph.i
  %lpad.loopexit = landingpad { ptr, i32 }
          catch ptr null
  br label %17

.loopexit.split-lp:                               ; preds = %3
  %lpad.loopexit.split-lp = landingpad { ptr, i32 }
          catch ptr null
  br label %17

17:                                               ; preds = %.loopexit.split-lp, %.loopexit
  %lpad.phi = phi { ptr, i32 } [ %lpad.loopexit, %.loopexit ], [ %lpad.loopexit.split-lp, %.loopexit.split-lp ]
  %18 = extractvalue { ptr, i32 } %lpad.phi, 0
  tail call void @__clang_call_terminate(ptr %18) #12
  unreachable
}